target datalayout = "e-m:e-p270:32:32-p271:32:32-p272:64:64-i64:64-i128:128-f80:128-n8:16:32:64-S128"
target triple = "x86_64-pc-linux-gnu"

%struct.PACKET = type { ptr, i64 }

; Function Attrs: inlinehint nounwind uwtable
define internal void @packet_forward(ptr noundef %0, i64 noundef %1) #3 {
  %3 = alloca ptr, align 8
  %4 = alloca i64, align 8
  store ptr %0, ptr %3, align 8, !tbaa !75
  store i64 %1, ptr %4, align 8, !tbaa !8
  %5 = load i64, ptr %4, align 8, !tbaa !8
  %6 = load ptr, ptr %3, align 8, !tbaa !75
  %7 = getelementptr inbounds nuw %struct.PACKET, ptr %6, i32 0, i32 0
  %8 = load ptr, ptr %7, align 8, !tbaa !80
  %9 = getelementptr inbounds nuw i8, ptr %8, i64 %5
  store ptr %9, ptr %7, align 8, !tbaa !80
  %10 = load i64, ptr %4, align 8, !tbaa !8
  %11 = load ptr, ptr %3, align 8, !tbaa !75
  %12 = getelementptr inbounds nuw %struct.PACKET, ptr %11, i32 0, i32 1
  %13 = load i64, ptr %12, align 8, !tbaa !85
  %14 = sub i64 %13, %10
  store i64 %14, ptr %12, align 8, !tbaa !85
  ret void
}

; Function Attrs: inlinehint nounwind uwtable
define internal i64 @PACKET_remaining(ptr noundef %0) #3 {
  %2 = alloca ptr, align 8
  store ptr %0, ptr %2, align 8, !tbaa !75
  %3 = load ptr, ptr %2, align 8, !tbaa !75
  %4 = getelementptr inbounds nuw %struct.PACKET, ptr %3, i32 0, i32 1
  %5 = load i64, ptr %4, align 8, !tbaa !85
  ret i64 %5
}

; Function Attrs: inlinehint nounwind uwtable
define internal i32 @PACKET_forward(ptr noundef %0, i64 noundef %1) #3 {
  %3 = alloca i32, align 4
  %4 = alloca ptr, align 8
  %5 = alloca i64, align 8
  store ptr %0, ptr %4, align 8, !tbaa !75
  store i64 %1, ptr %5, align 8, !tbaa !8
  %6 = load ptr, ptr %4, align 8, !tbaa !75
  %7 = call i64 @PACKET_remaining(ptr noundef %6)
  %8 = load i64, ptr %5, align 8, !tbaa !8
  %9 = icmp ult i64 %7, %8
  br i1 %9, label %10, label %11

10:                                               ; preds = %2
  store i32 0, ptr %3, align 4
  br label %14

11:                                               ; preds = %2
  %12 = load ptr, ptr %4, align 8, !tbaa !75
  %13 = load i64, ptr %5, align 8, !tbaa !8
  call void @packet_forward(ptr noundef %12, i64 noundef %13)
  store i32 1, ptr %3, align 4
  br label %14

14:                                               ; preds = %11, %10
  %15 = load i32, ptr %3, align 4
  ret i32 %15
}

; Function Attrs: inlinehint nounwind uwtable
define internal ptr @PACKET_end(ptr noundef %0) #3 {
  %2 = alloca ptr, align 8
  store ptr %0, ptr %2, align 8, !tbaa !75
  %3 = load ptr, ptr %2, align 8, !tbaa !75
  %4 = getelementptr inbounds nuw %struct.PACKET, ptr %3, i32 0, i32 0
  %5 = load ptr, ptr %4, align 8, !tbaa !80
  %6 = load ptr, ptr %2, align 8, !tbaa !75
  %7 = getelementptr inbounds nuw %struct.PACKET, ptr %6, i32 0, i32 1
  %8 = load i64, ptr %7, align 8, !tbaa !85
  %9 = getelementptr inbounds nuw i8, ptr %5, i64 %8
  ret ptr %9
}

; Function Attrs: inlinehint nounwind uwtable
define internal ptr @PACKET_data(ptr noundef %0) #3 {
  %2 = alloca ptr, align 8
  store ptr %0, ptr %2, align 8, !tbaa !75
  %3 = load ptr, ptr %2, align 8, !tbaa !75
  %4 = getelementptr inbounds nuw %struct.PACKET, ptr %3, i32 0, i32 0
  %5 = load ptr, ptr %4, align 8, !tbaa !80
  ret ptr %5
}

; Function Attrs: nounwind uwtable
define i64 @ossl_quic_wire_decode_padding(ptr noundef %0) #0 {
  %2 = alloca i64, align 8
  %3 = alloca ptr, align 8
  %4 = alloca ptr, align 8
  %5 = alloca ptr, align 8
  %6 = alloca ptr, align 8
  %7 = alloca i32, align 4
  store ptr %0, ptr %3, align 8, !tbaa !75
  call void @llvm.lifetime.start.p0(i64 8, ptr %4) #7
  %8 = load ptr, ptr %3, align 8, !tbaa !75
  %9 = call ptr @PACKET_data(ptr noundef %8)
  store ptr %9, ptr %4, align 8, !tbaa !47
  call void @llvm.lifetime.start.p0(i64 8, ptr %5) #7
  %10 = load ptr, ptr %3, align 8, !tbaa !75
  %11 = call ptr @PACKET_end(ptr noundef %10)
  store ptr %11, ptr %5, align 8, !tbaa !47
  call void @llvm.lifetime.start.p0(i64 8, ptr %6) #7
  %12 = load ptr, ptr %4, align 8, !tbaa !47
  store ptr %12, ptr %6, align 8, !tbaa !47
  br label %13

13:                                               ; preds = %24, %1
  %14 = load ptr, ptr %6, align 8, !tbaa !47
  %15 = load ptr, ptr %5, align 8, !tbaa !47
  %16 = icmp ult ptr %14, %15
  br i1 %16, label %17, label %22

17:                                               ; preds = %13
  %18 = load ptr, ptr %6, align 8, !tbaa !47
  %19 = load i8, ptr %18, align 1, !tbaa !56
  %20 = zext i8 %19 to i32
  %21 = icmp eq i32 %20, 0
  br label %22

22:                                               ; preds = %17, %13
  %23 = phi i1 [ false, %13 ], [ %21, %17 ]
  br i1 %23, label %24, label %27

24:                                               ; preds = %22
  %25 = load ptr, ptr %6, align 8, !tbaa !47
  %26 = getelementptr inbounds nuw i8, ptr %25, i32 1
  store ptr %26, ptr %6, align 8, !tbaa !47
  br label %13, !llvm.loop !88

27:                                               ; preds = %22
  %28 = load ptr, ptr %3, align 8, !tbaa !75
  %29 = load ptr, ptr %6, align 8, !tbaa !47
  %30 = load ptr, ptr %4, align 8, !tbaa !47
  %31 = ptrtoint ptr %29 to i64
  %32 = ptrtoint ptr %30 to i64
  %33 = sub i64 %31, %32
  %34 = call i32 @PACKET_forward(ptr noundef %28, i64 noundef %33)
  %35 = icmp ne i32 %34, 0
  br i1 %35, label %37, label %36

36:                                               ; preds = %27
  store i64 0, ptr %2, align 8
  store i32 1, ptr %7, align 4
  br label %43

37:                                               ; preds = %27
  %38 = load ptr, ptr %6, align 8, !tbaa !47
  %39 = load ptr, ptr %4, align 8, !tbaa !47
  %40 = ptrtoint ptr %38 to i64
  %41 = ptrtoint ptr %39 to i64
  %42 = sub i64 %40, %41
  store i64 %42, ptr %2, align 8
  store i32 1, ptr %7, align 4
  br label %43

43:                                               ; preds = %37, %36
  call void @llvm.lifetime.end.p0(i64 8, ptr %6) #7
  call void @llvm.lifetime.end.p0(i64 8, ptr %5) #7
  call void @llvm.lifetime.end.p0(i64 8, ptr %4) #7
  %44 = load i64, ptr %2, align 8
  ret i64 %44
}