; Function Attrs: nofree norecurse nosync nounwind memory(read, argmem: readwrite, inaccessiblemem: none) uwtable
define i64 @ossl_quic_wire_decode_padding(ptr noundef captures(none) %0) local_unnamed_addr #8 {
  %.val = load ptr, ptr %0, align 8, !tbaa !54
  %2 = getelementptr i8, ptr %0, i64 8
  %.val14 = load i64, ptr %2, align 8, !tbaa !52
  %3 = getelementptr inbounds nuw i8, ptr %.val, i64 %.val14
  %.not = icmp eq i64 %.val14, 0
  br i1 %.not, label %.critedge, label %.lr.ph

.lr.ph:                                           ; preds = %1, %6
  %.017 = phi ptr [ %7, %6 ], [ %.val, %1 ]
  %4 = load i8, ptr %.017, align 1, !tbaa !55
  %5 = icmp eq i8 %4, 0
  br i1 %5, label %6, label %.critedge

6:                                                ; preds = %.lr.ph
  %7 = getelementptr inbounds nuw i8, ptr %.017, i64 1
  %8 = icmp ult ptr %7, %3
  br i1 %8, label %.lr.ph, label %.critedge, !llvm.loop !60

.critedge:                                        ; preds = %.lr.ph, %6, %1
  %.0.lcssa = phi ptr [ %.val, %1 ], [ %7, %6 ], [ %.017, %.lr.ph ]
  %9 = ptrtoint ptr %.0.lcssa to i64
  %10 = ptrtoint ptr %.val to i64
  %11 = sub i64 %9, %10
  %12 = icmp ult i64 %.val14, %11
  br i1 %12, label %15, label %PACKET_forward.exit

PACKET_forward.exit:                              ; preds = %.critedge
  %13 = getelementptr inbounds nuw i8, ptr %.val, i64 %11
  store ptr %13, ptr %0, align 8, !tbaa !54
  %14 = sub nuw i64 %.val14, %11
  store i64 %14, ptr %2, align 8, !tbaa !52
  br label %15

15:                                               ; preds = %.critedge, %PACKET_forward.exit
  %16 = phi i64 [ %11, %PACKET_forward.exit ], [ 0, %.critedge ]
  ret i64 %16
}